target datalayout = "e-m:e-p270:32:32-p271:32:32-p272:64:64-i64:64-i128:128-f80:128-n8:16:32:64-S128"
target triple = "x86_64-pc-linux-gnu"

%"class.draco::ObjEncoder" = type { ptr, ptr, ptr, ptr, ptr, ptr, [20 x i8], ptr, ptr, ptr, %"class.std::unordered_map", i32, %"class.std::unordered_map", i32, %"class.std::__cxx11::basic_string" }
%"class.std::unordered_map" = type { %"class.std::_Hashtable" }
%"class.std::_Hashtable" = type { ptr, i64, %"struct.std::__detail::_Hash_node_base", i64, %"struct.std::__detail::_Prime_rehash_policy", ptr }
%"struct.std::__detail::_Hash_node_base" = type { ptr }
%"struct.std::__detail::_Prime_rehash_policy" = type { float, i64 }
%"class.std::__cxx11::basic_string" = type { %"struct.std::__cxx11::basic_string<char>::_Alloc_hider", i64, %union.anon }
%"struct.std::__cxx11::basic_string<char>::_Alloc_hider" = type { ptr }
%union.anon = type { i64, [8 x i8] }

; Function Attrs: mustprogress uwtable
define dso_local noundef zeroext i1 @_ZN5draco10ObjEncoder14EncodeInternalEv(ptr noundef nonnull align 8 dereferenceable(256) %0) #5 align 2 {
  %2 = alloca i1, align 1
  %3 = alloca ptr, align 8
  store ptr %0, ptr %3, align 8, !tbaa !4
  %4 = load ptr, ptr %3, align 8
  %5 = getelementptr inbounds nuw %"class.draco::ObjEncoder", ptr %4, i32 0, i32 0
  store ptr null, ptr %5, align 8, !tbaa !9
  %6 = getelementptr inbounds nuw %"class.draco::ObjEncoder", ptr %4, i32 0, i32 1
  store ptr null, ptr %6, align 8, !tbaa !27
  %7 = getelementptr inbounds nuw %"class.draco::ObjEncoder", ptr %4, i32 0, i32 2
  store ptr null, ptr %7, align 8, !tbaa !28
  %8 = getelementptr inbounds nuw %"class.draco::ObjEncoder", ptr %4, i32 0, i32 3
  store ptr null, ptr %8, align 8, !tbaa !29
  %9 = getelementptr inbounds nuw %"class.draco::ObjEncoder", ptr %4, i32 0, i32 4
  store ptr null, ptr %9, align 8, !tbaa !30
  %10 = getelementptr inbounds nuw %"class.draco::ObjEncoder", ptr %4, i32 0, i32 5
  store ptr null, ptr %10, align 8, !tbaa !31
  %11 = getelementptr inbounds nuw %"class.draco::ObjEncoder", ptr %4, i32 0, i32 11
  store i32 -1, ptr %11, align 8, !tbaa !35
  %12 = getelementptr inbounds nuw %"class.draco::ObjEncoder", ptr %4, i32 0, i32 13
  store i32 -1, ptr %12, align 8, !tbaa !36
  %13 = call noundef zeroext i1 @_ZN5draco10ObjEncoder13GetSubObjectsEv(ptr noundef nonnull align 8 dereferenceable(256) %4)
  br i1 %13, label %15, label %14

14:                                               ; preds = %1
  store i1 false, ptr %2, align 1
  br label %42

15:                                               ; preds = %1
  %16 = getelementptr inbounds nuw %"class.draco::ObjEncoder", ptr %4, i32 0, i32 9
  %17 = load ptr, ptr %16, align 8, !tbaa !34
  %18 = icmp ne ptr %17, null
  br i1 %18, label %19, label %22

19:                                               ; preds = %15
  %20 = call noundef zeroext i1 @_ZN5draco10ObjEncoder13GetAddedEdgesEv(ptr noundef nonnull align 8 dereferenceable(256) %4)
  br i1 %20, label %22, label %21

21:                                               ; preds = %19
  store i1 false, ptr %2, align 1
  br label %42

22:                                               ; preds = %19, %15
  %23 = call noundef zeroext i1 @_ZN5draco10ObjEncoder22EncodeMaterialFileNameEv(ptr noundef nonnull align 8 dereferenceable(256) %4)
  br i1 %23, label %25, label %24

24:                                               ; preds = %22
  store i1 false, ptr %2, align 1
  br label %42

25:                                               ; preds = %22
  %26 = call noundef zeroext i1 @_ZN5draco10ObjEncoder15EncodePositionsEv(ptr noundef nonnull align 8 dereferenceable(256) %4)
  br i1 %26, label %28, label %27

27:                                               ; preds = %25
  store i1 false, ptr %2, align 1
  br label %42

28:                                               ; preds = %25
  %29 = call noundef zeroext i1 @_ZN5draco10ObjEncoder24EncodeTextureCoordinatesEv(ptr noundef nonnull align 8 dereferenceable(256) %4)
  br i1 %29, label %31, label %30

30:                                               ; preds = %28
  store i1 false, ptr %2, align 1
  br label %42

31:                                               ; preds = %28
  %32 = call noundef zeroext i1 @_ZN5draco10ObjEncoder13EncodeNormalsEv(ptr noundef nonnull align 8 dereferenceable(256) %4)
  br i1 %32, label %34, label %33

33:                                               ; preds = %31
  store i1 false, ptr %2, align 1
  br label %42

34:                                               ; preds = %31
  %35 = getelementptr inbounds nuw %"class.draco::ObjEncoder", ptr %4, i32 0, i32 9
  %36 = load ptr, ptr %35, align 8, !tbaa !34
  %37 = icmp ne ptr %36, null
  br i1 %37, label %38, label %41

38:                                               ; preds = %34
  %39 = call noundef zeroext i1 @_ZN5draco10ObjEncoder11EncodeFacesEv(ptr noundef nonnull align 8 dereferenceable(256) %4)
  br i1 %39, label %41, label %40

40:                                               ; preds = %38
  store i1 false, ptr %2, align 1
  br label %42

41:                                               ; preds = %38, %34
  store i1 true, ptr %2, align 1
  br label %42

42:                                               ; preds = %41, %40, %33, %30, %27, %24, %21, %14
  %43 = load i1, ptr %2, align 1
  ret i1 %43
}