; Function Attrs: mustprogress uwtable
define dso_local noundef zeroext i1 @_ZN5draco10ObjEncoder14EncodeInternalEv(ptr noundef nonnull align 8 dereferenceable(256) initializes((0, 48), (152, 156), (216, 220)) %0) local_unnamed_addr #4 align 2 {
  %2 = getelementptr inbounds nuw i8, ptr %0, i64 152
  tail call void @llvm.memset.p0.i64(ptr noundef nonnull align 8 dereferenceable(48) %0, i8 0, i64 48, i1 false)
  store i32 -1, ptr %2, align 8, !tbaa !17
  %3 = getelementptr inbounds nuw i8, ptr %0, i64 216
  store i32 -1, ptr %3, align 8, !tbaa !28
  %4 = tail call noundef zeroext i1 @_ZN5draco10ObjEncoder13GetSubObjectsEv(ptr noundef nonnull align 8 dereferenceable(256) %0)
  br i1 %4, label %5, label %22

5:                                                ; preds = %1
  %6 = getelementptr inbounds nuw i8, ptr %0, i64 88
  %7 = load ptr, ptr %6, align 8, !tbaa !45
  %.not = icmp eq ptr %7, null
  br i1 %.not, label %10, label %8

8:                                                ; preds = %5
  %9 = tail call noundef zeroext i1 @_ZN5draco10ObjEncoder13GetAddedEdgesEv(ptr noundef nonnull align 8 dereferenceable(256) %0)
  br i1 %9, label %10, label %22

10:                                               ; preds = %8, %5
  %11 = tail call noundef zeroext i1 @_ZN5draco10ObjEncoder22EncodeMaterialFileNameEv(ptr noundef nonnull align 8 dereferenceable(256) %0)
  br i1 %11, label %12, label %22

12:                                               ; preds = %10
  %13 = tail call noundef zeroext i1 @_ZN5draco10ObjEncoder15EncodePositionsEv(ptr noundef nonnull align 8 dereferenceable(256) %0)
  br i1 %13, label %14, label %22

14:                                               ; preds = %12
  %15 = tail call noundef zeroext i1 @_ZN5draco10ObjEncoder24EncodeTextureCoordinatesEv(ptr noundef nonnull align 8 dereferenceable(256) %0)
  br i1 %15, label %16, label %22

16:                                               ; preds = %14
  %17 = tail call noundef zeroext i1 @_ZN5draco10ObjEncoder13EncodeNormalsEv(ptr noundef nonnull align 8 dereferenceable(256) %0)
  br i1 %17, label %18, label %22

18:                                               ; preds = %16
  %19 = load ptr, ptr %6, align 8, !tbaa !45
  %.not2 = icmp eq ptr %19, null
  br i1 %.not2, label %22, label %20

20:                                               ; preds = %18
  %21 = tail call noundef zeroext i1 @_ZN5draco10ObjEncoder11EncodeFacesEv(ptr noundef nonnull align 8 dereferenceable(256) %0)
  br label %22

22:                                               ; preds = %18, %20, %16, %14, %12, %10, %8, %1
  %.0 = phi i1 [ false, %1 ], [ false, %8 ], [ false, %10 ], [ false, %12 ], [ false, %14 ], [ false, %16 ], [ true, %20 ], [ true, %18 ]
  ret i1 %.0
}